	.section	__TEXT,__text,regular,pure_instructions
	.macosx_version_min 10, 12
	.file	1 "/Users/zacky/.erlenv/releases/21.1/lib/erlang/erts-10.1/include/erl_nif.h"
	.file	2 "/Users/zacky/.erlenv/releases/21.1/lib/erlang/erts-10.1/include/erl_drv_nif.h"
	.file	3 "/Users/zacky/github/nif_llvm/native/lib.c"
	.file	4 "/usr/include/i386/_types.h"
	.file	5 "/usr/include/sys/_types/_size_t.h"
	.p2align	4, 0x90         ## -- Begin function load
_load:                                  ## @load
Lfunc_begin0:
	.file	6 "/Users/zacky/github/nif_llvm/native/loader.c"
	.loc	6 7 0                   ## native/loader.c:7:0
	.cfi_startproc
## %bb.0:
	pushq	%rbp
	.cfi_def_cfa_offset 16
	.cfi_offset %rbp, -16
	movq	%rsp, %rbp
	.cfi_def_cfa_register %rbp
	pushq	%rbx
	pushq	%rax
	.cfi_offset %rbx, -24
	##DEBUG_VALUE: load:env <- $rdi
	##DEBUG_VALUE: load:priv <- $rsi
	##DEBUG_VALUE: load:info <- $rdx
Ltmp0:
	##DEBUG_VALUE: init_nif_llvm:env <- $rdi
	movq	%rdi, %rbx
Ltmp1:
	##DEBUG_VALUE: init_nif_llvm:env <- $rbx
	##DEBUG_VALUE: load:env <- $rbx
	.loc	3 79 48 prologue_end    ## native/lib.c:79:48
	leaq	L_.str(%rip), %rsi
Ltmp2:
	callq	_enif_make_atom
Ltmp3:
	.loc	3 79 22 is_stmt 0       ## native/lib.c:79:22
	movq	%rbx, %rdi
	movq	%rax, %rsi
	callq	_enif_raise_exception
	.loc	3 79 20                 ## native/lib.c:79:20
	movq	%rax, _arithmetic_error(%rip)
	.loc	3 80 13 is_stmt 1       ## native/lib.c:80:13
	leaq	L_.str.1(%rip), %rsi
	movq	%rbx, %rdi
	callq	_enif_make_atom
	.loc	3 80 11 is_stmt 0       ## native/lib.c:80:11
	movq	%rax, _ok_atom(%rip)
	.loc	3 81 16 is_stmt 1       ## native/lib.c:81:16
	leaq	L_.str.2(%rip), %rsi
	movq	%rbx, %rdi
	callq	_enif_make_atom
	.loc	3 81 14 is_stmt 0       ## native/lib.c:81:14
	movq	%rax, _error_atom(%rip)
	.loc	3 82 27 is_stmt 1       ## native/lib.c:82:27
	leaq	L_.str.3(%rip), %rsi
	movq	%rbx, %rdi
	callq	_enif_make_atom
	.loc	3 82 25 is_stmt 0       ## native/lib.c:82:25
	movq	%rax, _arithmetic_error_atom(%rip)
Ltmp4:
	.loc	6 9 3 is_stmt 1         ## native/loader.c:9:3
	xorl	%eax, %eax
	addq	$8, %rsp
	popq	%rbx
Ltmp5:
	popq	%rbp
	retq
Ltmp6:
Lfunc_end0:
	.cfi_endproc
                                        ## -- End function
	.p2align	4, 0x90         ## -- Begin function unload
_unload:                                ## @unload
Lfunc_begin1:
	.loc	6 14 0                  ## native/loader.c:14:0
	.cfi_startproc
## %bb.0:
	pushq	%rbp
	.cfi_def_cfa_offset 16
	.cfi_offset %rbp, -16
	movq	%rsp, %rbp
	.cfi_def_cfa_register %rbp
	##DEBUG_VALUE: unload:env <- $rdi
	##DEBUG_VALUE: unload:priv <- $rsi
Ltmp7:
	.loc	6 15 1 prologue_end     ## native/loader.c:15:1
	popq	%rbp
	retq
Ltmp8:
Lfunc_end1:
	.cfi_endproc
                                        ## -- End function
	.p2align	4, 0x90         ## -- Begin function reload
_reload:                                ## @reload
Lfunc_begin2:
	.loc	6 19 0                  ## native/loader.c:19:0
	.cfi_startproc
## %bb.0:
	pushq	%rbp
	.cfi_def_cfa_offset 16
	.cfi_offset %rbp, -16
	movq	%rsp, %rbp
	.cfi_def_cfa_register %rbp
	##DEBUG_VALUE: reload:env <- $rdi
	##DEBUG_VALUE: reload:priv <- $rsi
	##DEBUG_VALUE: reload:info <- $rdx
Ltmp9:
	.loc	6 20 3 prologue_end     ## native/loader.c:20:3
	xorl	%eax, %eax
	popq	%rbp
	retq
Ltmp10:
Lfunc_end2:
	.cfi_endproc
                                        ## -- End function
	.p2align	4, 0x90         ## -- Begin function upgrade
_upgrade:                               ## @upgrade
Lfunc_begin3:
	.loc	6 25 0                  ## native/loader.c:25:0
	.cfi_startproc
## %bb.0:
	pushq	%rbp
	.cfi_def_cfa_offset 16
	.cfi_offset %rbp, -16
	movq	%rsp, %rbp
	.cfi_def_cfa_register %rbp
	pushq	%rbx
	pushq	%rax
	.cfi_offset %rbx, -24
	##DEBUG_VALUE: upgrade:env <- $rdi
	##DEBUG_VALUE: upgrade:priv <- $rsi
	##DEBUG_VALUE: upgrade:old_priv <- $rdx
	##DEBUG_VALUE: upgrade:info <- $rcx
Ltmp11:
	##DEBUG_VALUE: load:env <- $rdi
	##DEBUG_VALUE: load:priv <- $rsi
	##DEBUG_VALUE: load:info <- $rcx
	##DEBUG_VALUE: init_nif_llvm:env <- $rdi
	movq	%rdi, %rbx
Ltmp12:
	##DEBUG_VALUE: init_nif_llvm:env <- $rbx
	##DEBUG_VALUE: load:env <- $rbx
	##DEBUG_VALUE: upgrade:env <- $rbx
	.loc	3 79 48 prologue_end    ## native/lib.c:79:48
	leaq	L_.str(%rip), %rsi
Ltmp13:
	callq	_enif_make_atom
Ltmp14:
	.loc	3 79 22 is_stmt 0       ## native/lib.c:79:22
	movq	%rbx, %rdi
	movq	%rax, %rsi
	callq	_enif_raise_exception
	.loc	3 79 20                 ## native/lib.c:79:20
	movq	%rax, _arithmetic_error(%rip)
	.loc	3 80 13 is_stmt 1       ## native/lib.c:80:13
	leaq	L_.str.1(%rip), %rsi
	movq	%rbx, %rdi
	callq	_enif_make_atom
	.loc	3 80 11 is_stmt 0       ## native/lib.c:80:11
	movq	%rax, _ok_atom(%rip)
	.loc	3 81 16 is_stmt 1       ## native/lib.c:81:16
	leaq	L_.str.2(%rip), %rsi
	movq	%rbx, %rdi
	callq	_enif_make_atom
	.loc	3 81 14 is_stmt 0       ## native/lib.c:81:14
	movq	%rax, _error_atom(%rip)
	.loc	3 82 27 is_stmt 1       ## native/lib.c:82:27
	leaq	L_.str.3(%rip), %rsi
	movq	%rbx, %rdi
	callq	_enif_make_atom
	.loc	3 82 25 is_stmt 0       ## native/lib.c:82:25
	movq	%rax, _arithmetic_error_atom(%rip)
Ltmp15:
	.loc	6 26 3 is_stmt 1        ## native/loader.c:26:3
	xorl	%eax, %eax
	addq	$8, %rsp
	popq	%rbx
Ltmp16:
	popq	%rbp
	retq
Ltmp17:
Lfunc_end3:
	.cfi_endproc
                                        ## -- End function
	.globl	_enif_get_big_num       ## -- Begin function enif_get_big_num
	.p2align	4, 0x90
_enif_get_big_num:                      ## @enif_get_big_num
Lfunc_begin4:
	.loc	3 11 0                  ## native/lib.c:11:0
	.cfi_startproc
## %bb.0:
	pushq	%rbp
	.cfi_def_cfa_offset 16
	.cfi_offset %rbp, -16
	movq	%rsp, %rbp
	.cfi_def_cfa_register %rbp
	pushq	%r15
	pushq	%r14
	pushq	%r13
	pushq	%r12
	pushq	%rbx
	subq	$56, %rsp
	.cfi_offset %rbx, -56
	.cfi_offset %r12, -48
	.cfi_offset %r13, -40
	.cfi_offset %r14, -32
	.cfi_offset %r15, -24
	##DEBUG_VALUE: enif_get_big_num:env <- $rdi
	##DEBUG_VALUE: enif_get_big_num:term <- $rsi
	##DEBUG_VALUE: enif_get_big_num:is_negative <- $rdx
	##DEBUG_VALUE: enif_get_big_num:value <- $rcx
	movq	%rcx, %r14
	movq	%rdx, %r15
	movq	%rdi, %rbx
Ltmp18:
	##DEBUG_VALUE: enif_get_big_num:value <- $r14
	##DEBUG_VALUE: enif_get_big_num:is_negative <- $r15
	##DEBUG_VALUE: enif_get_big_num:term <- $rsi
	##DEBUG_VALUE: enif_get_big_num:env <- $rbx
	leaq	-60(%rbp), %rdx
Ltmp19:
	##DEBUG_VALUE: enif_get_big_num:tuple_arity <- [DW_OP_constu 60, DW_OP_minus, DW_OP_deref] $rbp
	leaq	-56(%rbp), %rcx
Ltmp20:
	##DEBUG_VALUE: enif_get_big_num:tuple <- [DW_OP_constu 56, DW_OP_minus, DW_OP_deref] $rbp
	##DEBUG_VALUE: enif_get_big_num:term <- $rsi
	.loc	3 14 24 prologue_end    ## native/lib.c:14:24
	callq	_enif_get_tuple
Ltmp21:
	.loc	3 0 24 is_stmt 0        ## native/lib.c:0:24
	xorl	%r12d, %r12d
	.loc	3 14 72                 ## native/lib.c:14:72
	testl	%eax, %eax
Ltmp22:
	.loc	3 14 6                  ## native/lib.c:14:6
	je	LBB4_20
Ltmp23:
## %bb.1:
	##DEBUG_VALUE: enif_get_big_num:tuple <- [DW_OP_constu 56, DW_OP_minus, DW_OP_deref] $rbp
	##DEBUG_VALUE: enif_get_big_num:tuple_arity <- [DW_OP_constu 60, DW_OP_minus, DW_OP_deref] $rbp
	##DEBUG_VALUE: enif_get_big_num:env <- $rbx
	##DEBUG_VALUE: enif_get_big_num:is_negative <- $r15
	##DEBUG_VALUE: enif_get_big_num:value <- $r14
	cmpl	$2, -60(%rbp)
	jne	LBB4_20
Ltmp24:
## %bb.2:
	##DEBUG_VALUE: enif_get_big_num:tuple <- [DW_OP_constu 56, DW_OP_minus, DW_OP_deref] $rbp
	##DEBUG_VALUE: enif_get_big_num:tuple_arity <- [DW_OP_constu 60, DW_OP_minus, DW_OP_deref] $rbp
	##DEBUG_VALUE: enif_get_big_num:env <- $rbx
	##DEBUG_VALUE: enif_get_big_num:is_negative <- $r15
	##DEBUG_VALUE: enif_get_big_num:value <- $r14
	.loc	3 20 43 is_stmt 1       ## native/lib.c:20:43
	movq	-56(%rbp), %rax
Ltmp25:
	##DEBUG_VALUE: enif_get_big_num:tuple <- $rax
	movq	(%rax), %rsi
	.loc	3 20 24 is_stmt 0       ## native/lib.c:20:24
	movq	%rbx, %rdi
	movq	%r15, %rdx
	callq	_enif_get_uint
Ltmp26:
	.loc	3 20 66                 ## native/lib.c:20:66
	testl	%eax, %eax
Ltmp27:
	.loc	3 20 6                  ## native/lib.c:20:6
	je	LBB4_20
Ltmp28:
## %bb.3:
	##DEBUG_VALUE: enif_get_big_num:tuple_arity <- [DW_OP_constu 60, DW_OP_minus, DW_OP_deref] $rbp
	##DEBUG_VALUE: enif_get_big_num:env <- $rbx
	##DEBUG_VALUE: enif_get_big_num:is_negative <- $r15
	##DEBUG_VALUE: enif_get_big_num:value <- $r14
	.loc	3 24 50 is_stmt 1       ## native/lib.c:24:50
	movq	-56(%rbp), %rax
Ltmp29:
	##DEBUG_VALUE: enif_get_big_num:tuple <- $rax
	movq	8(%rax), %rsi
	leaq	-44(%rbp), %rdx
Ltmp30:
	##DEBUG_VALUE: enif_get_big_num:length <- [DW_OP_constu 44, DW_OP_minus, DW_OP_deref] $rbp
	.loc	3 24 24 is_stmt 0       ## native/lib.c:24:24
	movq	%rbx, %rdi
	callq	_enif_get_list_length
Ltmp31:
	.loc	3 0 24                  ## native/lib.c:0:24
	xorl	%r12d, %r12d
	.loc	3 24 69                 ## native/lib.c:24:69
	testl	%eax, %eax
Ltmp32:
	.loc	3 24 6                  ## native/lib.c:24:6
	je	LBB4_20
Ltmp33:
## %bb.4:
	##DEBUG_VALUE: enif_get_big_num:length <- [DW_OP_constu 44, DW_OP_minus, DW_OP_deref] $rbp
	##DEBUG_VALUE: enif_get_big_num:tuple_arity <- [DW_OP_constu 60, DW_OP_minus, DW_OP_deref] $rbp
	##DEBUG_VALUE: enif_get_big_num:env <- $rbx
	##DEBUG_VALUE: enif_get_big_num:is_negative <- $r15
	##DEBUG_VALUE: enif_get_big_num:value <- $r14
	.loc	3 0 6                   ## native/lib.c:0:6
	movl	-44(%rbp), %eax
	.loc	3 24 6                  ## native/lib.c:24:6
	testl	%eax, %eax
	je	LBB4_20
Ltmp34:
## %bb.5:
	##DEBUG_VALUE: enif_get_big_num:length <- [DW_OP_constu 44, DW_OP_minus, DW_OP_deref] $rbp
	##DEBUG_VALUE: enif_get_big_num:tuple_arity <- [DW_OP_constu 60, DW_OP_minus, DW_OP_deref] $rbp
	##DEBUG_VALUE: enif_get_big_num:env <- $rbx
	##DEBUG_VALUE: enif_get_big_num:is_negative <- $r15
	##DEBUG_VALUE: enif_get_big_num:value <- $r14
	.loc	3 31 48 is_stmt 1       ## native/lib.c:31:48
	movq	-56(%rbp), %rax
Ltmp35:
	##DEBUG_VALUE: enif_get_big_num:tuple <- $rax
	movq	8(%rax), %rsi
	leaq	-80(%rbp), %rdx
Ltmp36:
	##DEBUG_VALUE: enif_get_big_num:head <- [DW_OP_constu 80, DW_OP_minus, DW_OP_deref] $rbp
	.loc	3 0 48 is_stmt 0        ## native/lib.c:0:48
	leaq	-72(%rbp), %rcx
Ltmp37:
	##DEBUG_VALUE: enif_get_big_num:tail <- [DW_OP_constu 72, DW_OP_minus, DW_OP_deref] $rbp
	.loc	3 31 24                 ## native/lib.c:31:24
	movq	%rbx, %rdi
	callq	_enif_get_list_cell
Ltmp38:
	.loc	3 0 24                  ## native/lib.c:0:24
	xorl	%r12d, %r12d
	.loc	3 31 72                 ## native/lib.c:31:72
	testl	%eax, %eax
Ltmp39:
	.loc	3 31 6                  ## native/lib.c:31:6
	je	LBB4_20
Ltmp40:
## %bb.6:
	##DEBUG_VALUE: enif_get_big_num:tail <- [DW_OP_constu 72, DW_OP_minus, DW_OP_deref] $rbp
	##DEBUG_VALUE: enif_get_big_num:head <- [DW_OP_constu 80, DW_OP_minus, DW_OP_deref] $rbp
	##DEBUG_VALUE: enif_get_big_num:length <- [DW_OP_constu 44, DW_OP_minus, DW_OP_deref] $rbp
	##DEBUG_VALUE: enif_get_big_num:tuple_arity <- [DW_OP_constu 60, DW_OP_minus, DW_OP_deref] $rbp
	##DEBUG_VALUE: enif_get_big_num:env <- $rbx
	##DEBUG_VALUE: enif_get_big_num:is_negative <- $r15
	##DEBUG_VALUE: enif_get_big_num:value <- $r14
	.loc	3 34 74 is_stmt 1       ## native/lib.c:34:74
	movl	-44(%rbp), %edi
	.loc	3 34 72 is_stmt 0       ## native/lib.c:34:72
	shlq	$3, %rdi
	.loc	3 34 39                 ## native/lib.c:34:39
	callq	_enif_alloc
Ltmp41:
	.loc	3 35 26 is_stmt 1       ## native/lib.c:35:26
	testq	%rax, %rax
Ltmp42:
	.loc	3 35 6 is_stmt 0        ## native/lib.c:35:6
	je	LBB4_20
Ltmp43:
## %bb.7:
	##DEBUG_VALUE: enif_get_big_num:tail <- [DW_OP_constu 72, DW_OP_minus, DW_OP_deref] $rbp
	##DEBUG_VALUE: enif_get_big_num:head <- [DW_OP_constu 80, DW_OP_minus, DW_OP_deref] $rbp
	##DEBUG_VALUE: enif_get_big_num:length <- [DW_OP_constu 44, DW_OP_minus, DW_OP_deref] $rbp
	##DEBUG_VALUE: enif_get_big_num:tuple_arity <- [DW_OP_constu 60, DW_OP_minus, DW_OP_deref] $rbp
	##DEBUG_VALUE: enif_get_big_num:env <- $rbx
	##DEBUG_VALUE: enif_get_big_num:is_negative <- $r15
	##DEBUG_VALUE: enif_get_big_num:value <- $r14
	.loc	3 0 6                   ## native/lib.c:0:6
	movq	%rax, %r15
Ltmp44:
	##DEBUG_VALUE: enif_get_big_num:v <- $r15
	.loc	3 38 22 is_stmt 1       ## native/lib.c:38:22
	movl	$16, %edi
	callq	_enif_alloc
	.loc	3 38 10 is_stmt 0       ## native/lib.c:38:10
	movq	%rax, (%r14)
Ltmp45:
	.loc	3 39 31 is_stmt 1       ## native/lib.c:39:31
	testq	%rax, %rax
Ltmp46:
	.loc	3 39 6 is_stmt 0        ## native/lib.c:39:6
	je	LBB4_10
Ltmp47:
## %bb.8:
	##DEBUG_VALUE: enif_get_big_num:v <- $r15
	##DEBUG_VALUE: enif_get_big_num:tail <- [DW_OP_constu 72, DW_OP_minus, DW_OP_deref] $rbp
	##DEBUG_VALUE: enif_get_big_num:head <- [DW_OP_constu 80, DW_OP_minus, DW_OP_deref] $rbp
	##DEBUG_VALUE: enif_get_big_num:length <- [DW_OP_constu 44, DW_OP_minus, DW_OP_deref] $rbp
	##DEBUG_VALUE: enif_get_big_num:tuple_arity <- [DW_OP_constu 60, DW_OP_minus, DW_OP_deref] $rbp
	##DEBUG_VALUE: enif_get_big_num:env <- $rbx
	##DEBUG_VALUE: enif_get_big_num:value <- $r14
	##DEBUG_VALUE: i <- 0
	.loc	3 43 20 is_stmt 1       ## native/lib.c:43:20
	cmpl	$0, -44(%rbp)
Ltmp48:
	.loc	3 43 3 is_stmt 0        ## native/lib.c:43:3
	je	LBB4_9
Ltmp49:
## %bb.11:                              ## %.preheader
	##DEBUG_VALUE: enif_get_big_num:v <- $r15
	##DEBUG_VALUE: enif_get_big_num:tail <- [DW_OP_constu 72, DW_OP_minus, DW_OP_deref] $rbp
	##DEBUG_VALUE: enif_get_big_num:head <- [DW_OP_constu 80, DW_OP_minus, DW_OP_deref] $rbp
	##DEBUG_VALUE: enif_get_big_num:length <- [DW_OP_constu 44, DW_OP_minus, DW_OP_deref] $rbp
	##DEBUG_VALUE: enif_get_big_num:tuple_arity <- [DW_OP_constu 60, DW_OP_minus, DW_OP_deref] $rbp
	##DEBUG_VALUE: enif_get_big_num:env <- $rbx
	##DEBUG_VALUE: enif_get_big_num:value <- $r14
	.loc	3 0 3                   ## native/lib.c:0:3
	movq	%r14, -88(%rbp)         ## 8-byte Spill
Ltmp50:
	##DEBUG_VALUE: enif_get_big_num:value <- [DW_OP_constu 88, DW_OP_minus] [$rbp+0]
	xorl	%r14d, %r14d
	leaq	-80(%rbp), %r12
	leaq	-72(%rbp), %r13
Ltmp51:
	.p2align	4, 0x90
LBB4_12:                                ## =>This Inner Loop Header: Depth=1
	##DEBUG_VALUE: enif_get_big_num:value <- [DW_OP_constu 88, DW_OP_minus] [$rbp+0]
	##DEBUG_VALUE: enif_get_big_num:v <- $r15
	##DEBUG_VALUE: enif_get_big_num:tail <- [DW_OP_constu 72, DW_OP_minus, DW_OP_deref] $rbp
	##DEBUG_VALUE: enif_get_big_num:head <- [DW_OP_constu 80, DW_OP_minus, DW_OP_deref] $rbp
	##DEBUG_VALUE: enif_get_big_num:length <- [DW_OP_constu 44, DW_OP_minus, DW_OP_deref] $rbp
	##DEBUG_VALUE: enif_get_big_num:tuple_arity <- [DW_OP_constu 60, DW_OP_minus, DW_OP_deref] $rbp
	##DEBUG_VALUE: enif_get_big_num:env <- $rbx
	##DEBUG_VALUE: i <- $r14
	.loc	3 44 47 is_stmt 1       ## native/lib.c:44:47
	movq	-80(%rbp), %rsi
Ltmp52:
	##DEBUG_VALUE: enif_get_big_num:head <- $rsi
	.loc	3 44 54 is_stmt 0       ## native/lib.c:44:54
	leaq	(%r15,%r14,8), %rdx
	.loc	3 44 26                 ## native/lib.c:44:26
	movq	%rbx, %rdi
	callq	_enif_get_ulong
Ltmp53:
	.loc	3 44 60                 ## native/lib.c:44:60
	testl	%eax, %eax
Ltmp54:
	.loc	3 44 8                  ## native/lib.c:44:8
	je	LBB4_13
Ltmp55:
## %bb.14:                              ##   in Loop: Header=BB4_12 Depth=1
	##DEBUG_VALUE: enif_get_big_num:value <- [DW_OP_constu 88, DW_OP_minus] [$rbp+0]
	##DEBUG_VALUE: i <- $r14
	##DEBUG_VALUE: enif_get_big_num:v <- $r15
	##DEBUG_VALUE: enif_get_big_num:tail <- [DW_OP_constu 72, DW_OP_minus, DW_OP_deref] $rbp
	##DEBUG_VALUE: enif_get_big_num:length <- [DW_OP_constu 44, DW_OP_minus, DW_OP_deref] $rbp
	##DEBUG_VALUE: enif_get_big_num:tuple_arity <- [DW_OP_constu 60, DW_OP_minus, DW_OP_deref] $rbp
	##DEBUG_VALUE: enif_get_big_num:env <- $rbx
	.loc	3 48 50 is_stmt 1       ## native/lib.c:48:50
	movq	-72(%rbp), %rsi
Ltmp56:
	##DEBUG_VALUE: enif_get_big_num:tail <- $rsi
	##DEBUG_VALUE: enif_get_big_num:tail <- [DW_OP_constu 72, DW_OP_minus, DW_OP_deref] $rbp
	##DEBUG_VALUE: enif_get_big_num:head <- [DW_OP_constu 80, DW_OP_minus, DW_OP_deref] $rbp
	.loc	3 48 26 is_stmt 0       ## native/lib.c:48:26
	movq	%rbx, %rdi
	movq	%r12, %rdx
	movq	%r13, %rcx
	callq	_enif_get_list_cell
	.loc	3 48 70                 ## native/lib.c:48:70
	testl	%eax, %eax
Ltmp57:
	.loc	3 48 8                  ## native/lib.c:48:8
	je	LBB4_16
Ltmp58:
## %bb.15:                              ##   in Loop: Header=BB4_12 Depth=1
	##DEBUG_VALUE: enif_get_big_num:value <- [DW_OP_constu 88, DW_OP_minus] [$rbp+0]
	##DEBUG_VALUE: i <- $r14
	##DEBUG_VALUE: enif_get_big_num:v <- $r15
	##DEBUG_VALUE: enif_get_big_num:tail <- [DW_OP_constu 72, DW_OP_minus, DW_OP_deref] $rbp
	##DEBUG_VALUE: enif_get_big_num:head <- [DW_OP_constu 80, DW_OP_minus, DW_OP_deref] $rbp
	##DEBUG_VALUE: enif_get_big_num:length <- [DW_OP_constu 44, DW_OP_minus, DW_OP_deref] $rbp
	##DEBUG_VALUE: enif_get_big_num:tuple_arity <- [DW_OP_constu 60, DW_OP_minus, DW_OP_deref] $rbp
	##DEBUG_VALUE: enif_get_big_num:env <- $rbx
	.loc	3 43 22 is_stmt 1       ## native/lib.c:43:22
	movl	-44(%rbp), %ecx
	.loc	3 43 31 is_stmt 0       ## native/lib.c:43:31
	incq	%r14
Ltmp59:
LBB4_17:                                ##   in Loop: Header=BB4_12 Depth=1
	##DEBUG_VALUE: enif_get_big_num:value <- [DW_OP_constu 88, DW_OP_minus] [$rbp+0]
	##DEBUG_VALUE: enif_get_big_num:v <- $r15
	##DEBUG_VALUE: enif_get_big_num:tail <- [DW_OP_constu 72, DW_OP_minus, DW_OP_deref] $rbp
	##DEBUG_VALUE: enif_get_big_num:head <- [DW_OP_constu 80, DW_OP_minus, DW_OP_deref] $rbp
	##DEBUG_VALUE: enif_get_big_num:tuple_arity <- [DW_OP_constu 60, DW_OP_minus, DW_OP_deref] $rbp
	##DEBUG_VALUE: enif_get_big_num:env <- $rbx
	##DEBUG_VALUE: enif_get_big_num:length <- $ecx
	##DEBUG_VALUE: i <- [DW_OP_plus_uconst 1, DW_OP_stack_value] undef
	.loc	3 43 20                 ## native/lib.c:43:20
	cmpq	%rcx, %r14
Ltmp60:
	.loc	3 43 3                  ## native/lib.c:43:3
	jb	LBB4_12
	jmp	LBB4_18
Ltmp61:
LBB4_16:                                ##   in Loop: Header=BB4_12 Depth=1
	##DEBUG_VALUE: enif_get_big_num:value <- [DW_OP_constu 88, DW_OP_minus] [$rbp+0]
	##DEBUG_VALUE: i <- $r14
	##DEBUG_VALUE: enif_get_big_num:v <- $r15
	##DEBUG_VALUE: enif_get_big_num:tail <- [DW_OP_constu 72, DW_OP_minus, DW_OP_deref] $rbp
	##DEBUG_VALUE: enif_get_big_num:head <- [DW_OP_constu 80, DW_OP_minus, DW_OP_deref] $rbp
	##DEBUG_VALUE: enif_get_big_num:length <- [DW_OP_constu 44, DW_OP_minus, DW_OP_deref] $rbp
	##DEBUG_VALUE: enif_get_big_num:tuple_arity <- [DW_OP_constu 60, DW_OP_minus, DW_OP_deref] $rbp
	##DEBUG_VALUE: enif_get_big_num:env <- $rbx
	.loc	3 49 12 is_stmt 1       ## native/lib.c:49:12
	incq	%r14
Ltmp62:
	.loc	3 49 18 is_stmt 0       ## native/lib.c:49:18
	movl	-44(%rbp), %ecx
Ltmp63:
	##DEBUG_VALUE: enif_get_big_num:length <- $ecx
	.loc	3 49 16                 ## native/lib.c:49:16
	cmpq	%rcx, %r14
Ltmp64:
	.loc	3 49 10                 ## native/lib.c:49:10
	jae	LBB4_17
Ltmp65:
LBB4_13:
	##DEBUG_VALUE: enif_get_big_num:value <- [DW_OP_constu 88, DW_OP_minus] [$rbp+0]
	##DEBUG_VALUE: enif_get_big_num:v <- $r15
	##DEBUG_VALUE: enif_get_big_num:tail <- [DW_OP_constu 72, DW_OP_minus, DW_OP_deref] $rbp
	##DEBUG_VALUE: enif_get_big_num:tuple_arity <- [DW_OP_constu 60, DW_OP_minus, DW_OP_deref] $rbp
	##DEBUG_VALUE: enif_get_big_num:env <- $rbx
	.loc	3 0 10                  ## native/lib.c:0:10
	movq	%r15, %rdi
	callq	_enif_free
	xorl	%r12d, %r12d
	jmp	LBB4_20
Ltmp66:
LBB4_18:
	##DEBUG_VALUE: enif_get_big_num:value <- [DW_OP_constu 88, DW_OP_minus] [$rbp+0]
	##DEBUG_VALUE: enif_get_big_num:length <- $ecx
	##DEBUG_VALUE: enif_get_big_num:v <- $r15
	##DEBUG_VALUE: enif_get_big_num:tail <- [DW_OP_constu 72, DW_OP_minus, DW_OP_deref] $rbp
	##DEBUG_VALUE: enif_get_big_num:head <- [DW_OP_constu 80, DW_OP_minus, DW_OP_deref] $rbp
	##DEBUG_VALUE: enif_get_big_num:tuple_arity <- [DW_OP_constu 60, DW_OP_minus, DW_OP_deref] $rbp
	##DEBUG_VALUE: enif_get_big_num:env <- $rbx
	.loc	3 55 4 is_stmt 1        ## native/lib.c:55:4
	movq	-88(%rbp), %rax         ## 8-byte Reload
	movq	(%rax), %rax
	jmp	LBB4_19
Ltmp67:
LBB4_9:
	##DEBUG_VALUE: enif_get_big_num:v <- $r15
	##DEBUG_VALUE: enif_get_big_num:tail <- [DW_OP_constu 72, DW_OP_minus, DW_OP_deref] $rbp
	##DEBUG_VALUE: enif_get_big_num:head <- [DW_OP_constu 80, DW_OP_minus, DW_OP_deref] $rbp
	##DEBUG_VALUE: enif_get_big_num:length <- [DW_OP_constu 44, DW_OP_minus, DW_OP_deref] $rbp
	##DEBUG_VALUE: enif_get_big_num:tuple_arity <- [DW_OP_constu 60, DW_OP_minus, DW_OP_deref] $rbp
	##DEBUG_VALUE: enif_get_big_num:env <- $rbx
	##DEBUG_VALUE: enif_get_big_num:value <- $r14
	.loc	3 0 4 is_stmt 0         ## native/lib.c:0:4
	xorl	%ecx, %ecx
Ltmp68:
LBB4_19:
	##DEBUG_VALUE: enif_get_big_num:v <- $r15
	##DEBUG_VALUE: enif_get_big_num:tail <- [DW_OP_constu 72, DW_OP_minus, DW_OP_deref] $rbp
	##DEBUG_VALUE: enif_get_big_num:head <- [DW_OP_constu 80, DW_OP_minus, DW_OP_deref] $rbp
	##DEBUG_VALUE: enif_get_big_num:tuple_arity <- [DW_OP_constu 60, DW_OP_minus, DW_OP_deref] $rbp
	##DEBUG_VALUE: enif_get_big_num:env <- $rbx
	##DEBUG_VALUE: enif_get_big_num:length <- undef
	.loc	3 55 18                 ## native/lib.c:55:18
	movl	%ecx, (%rax)
	.loc	3 56 19 is_stmt 1       ## native/lib.c:56:19
	movq	%r15, 8(%rax)
	movl	$1, %r12d
Ltmp69:
LBB4_20:
	##DEBUG_VALUE: enif_get_big_num:tuple_arity <- [DW_OP_constu 60, DW_OP_minus, DW_OP_deref] $rbp
	##DEBUG_VALUE: enif_get_big_num:env <- $rbx
	.loc	3 58 1                  ## native/lib.c:58:1
	movl	%r12d, %eax
	addq	$56, %rsp
	popq	%rbx
Ltmp70:
	popq	%r12
	popq	%r13
	popq	%r14
	popq	%r15
	popq	%rbp
	retq
LBB4_10:
Ltmp71:
	##DEBUG_VALUE: enif_get_big_num:v <- $r15
	##DEBUG_VALUE: enif_get_big_num:tail <- [DW_OP_constu 72, DW_OP_minus, DW_OP_deref] $rbp
	##DEBUG_VALUE: enif_get_big_num:head <- [DW_OP_constu 80, DW_OP_minus, DW_OP_deref] $rbp
	##DEBUG_VALUE: enif_get_big_num:length <- [DW_OP_constu 44, DW_OP_minus, DW_OP_deref] $rbp
	##DEBUG_VALUE: enif_get_big_num:tuple_arity <- [DW_OP_constu 60, DW_OP_minus, DW_OP_deref] $rbp
	##DEBUG_VALUE: enif_get_big_num:env <- $rbx
	##DEBUG_VALUE: enif_get_big_num:value <- $r14
	.loc	3 40 5                  ## native/lib.c:40:5
	movq	%r15, %rdi
	callq	_enif_free
	jmp	LBB4_20
Ltmp72:
Lfunc_end4:
	.cfi_endproc
                                        ## -- End function
	.globl	_enif_make_big_num      ## -- Begin function enif_make_big_num
	.p2align	4, 0x90
_enif_make_big_num:                     ## @enif_make_big_num
Lfunc_begin5:
	.loc	3 61 0                  ## native/lib.c:61:0
	.cfi_startproc
## %bb.0:
	pushq	%rbp
	.cfi_def_cfa_offset 16
	.cfi_offset %rbp, -16
	movq	%rsp, %rbp
	.cfi_def_cfa_register %rbp
	pushq	%r15
	pushq	%r14
	pushq	%r13
	pushq	%r12
	pushq	%rbx
	pushq	%rax
	.cfi_offset %rbx, -56
	.cfi_offset %r12, -48
	.cfi_offset %r13, -40
	.cfi_offset %r14, -32
	.cfi_offset %r15, -24
	##DEBUG_VALUE: enif_make_big_num:env <- $rdi
	##DEBUG_VALUE: enif_make_big_num:is_negative <- $esi
	##DEBUG_VALUE: enif_make_big_num:value <- $rdx
Ltmp73:
	##DEBUG_VALUE: enif_make_tuple2:env <- $rdi
	movq	%rdx, %r13
	movq	%rdi, %r15
Ltmp74:
	##DEBUG_VALUE: enif_make_tuple2:env <- $r15
	##DEBUG_VALUE: enif_make_big_num:value <- $r13
	##DEBUG_VALUE: enif_make_big_num:is_negative <- $esi
	##DEBUG_VALUE: enif_make_big_num:env <- $r15
	##DEBUG_VALUE: enif_make_big_num:is_negative <- $esi
	.loc	3 62 34 prologue_end    ## native/lib.c:62:34
	callq	_enif_make_uint
Ltmp75:
	movq	%rax, %r14
Ltmp76:
	##DEBUG_VALUE: enif_make_big_num:term_is_negative <- $r14
	##DEBUG_VALUE: enif_make_tuple2:e1 <- $r14
	.loc	3 63 70                 ## native/lib.c:63:70
	movslq	(%r13), %rdi
	.loc	3 63 61 is_stmt 0       ## native/lib.c:63:61
	shlq	$3, %rdi
	.loc	3 63 29                 ## native/lib.c:63:29
	callq	_enif_alloc
	movq	%rax, %r12
Ltmp77:
	##DEBUG_VALUE: i <- 0
	##DEBUG_VALUE: enif_make_big_num:term_array <- $r12
	.loc	3 64 28 is_stmt 1       ## native/lib.c:64:28
	movl	(%r13), %edx
	.loc	3 64 19 is_stmt 0       ## native/lib.c:64:19
	testl	%edx, %edx
Ltmp78:
	.loc	3 64 2                  ## native/lib.c:64:2
	jle	LBB5_3
Ltmp79:
## %bb.1:
	##DEBUG_VALUE: enif_make_big_num:term_array <- $r12
	##DEBUG_VALUE: enif_make_big_num:term_is_negative <- $r14
	##DEBUG_VALUE: enif_make_big_num:env <- $r15
	##DEBUG_VALUE: enif_make_big_num:value <- $r13
	.loc	3 0 2                   ## native/lib.c:0:2
	xorl	%ebx, %ebx
Ltmp80:
	.p2align	4, 0x90
LBB5_2:                                 ## =>This Inner Loop Header: Depth=1
	##DEBUG_VALUE: enif_make_big_num:term_array <- $r12
	##DEBUG_VALUE: enif_make_big_num:term_is_negative <- $r14
	##DEBUG_VALUE: enif_make_big_num:env <- $r15
	##DEBUG_VALUE: enif_make_big_num:value <- $r13
	##DEBUG_VALUE: i <- $rbx
	.loc	3 65 48 is_stmt 1       ## native/lib.c:65:48
	movq	8(%r13), %rax
	.loc	3 65 41 is_stmt 0       ## native/lib.c:65:41
	movq	(%rax,%rbx,8), %rsi
	.loc	3 65 19                 ## native/lib.c:65:19
	movq	%r15, %rdi
	callq	_enif_make_ulong
	.loc	3 65 17                 ## native/lib.c:65:17
	movq	%rax, (%r12,%rbx,8)
Ltmp81:
	.loc	3 64 35 is_stmt 1       ## native/lib.c:64:35
	incq	%rbx
Ltmp82:
	##DEBUG_VALUE: i <- [DW_OP_plus_uconst 1, DW_OP_stack_value] undef
	.loc	3 64 28 is_stmt 0       ## native/lib.c:64:28
	movslq	(%r13), %rdx
	.loc	3 64 19                 ## native/lib.c:64:19
	cmpq	%rdx, %rbx
Ltmp83:
	.loc	3 64 2                  ## native/lib.c:64:2
	jl	LBB5_2
Ltmp84:
LBB5_3:
	##DEBUG_VALUE: enif_make_big_num:term_array <- $r12
	##DEBUG_VALUE: enif_make_big_num:term_is_negative <- $r14
	##DEBUG_VALUE: enif_make_big_num:env <- $r15
	##DEBUG_VALUE: enif_make_big_num:value <- $r13
	.loc	3 67 27 is_stmt 1       ## native/lib.c:67:27
	movq	%r15, %rdi
	movq	%r12, %rsi
                                        ## kill: def $edx killed $edx killed $rdx
	callq	_enif_make_list_from_array
	movq	%rax, %rbx
Ltmp85:
	##DEBUG_VALUE: enif_make_big_num:term_list <- $rbx
	.loc	3 68 2                  ## native/lib.c:68:2
	movq	%r12, %rdi
	callq	_enif_free
Ltmp86:
	##DEBUG_VALUE: enif_make_tuple2:e2 <- $rbx
	.file	7 "/Users/zacky/.erlenv/releases/21.1/lib/erlang/erts-10.1/include/erl_nif_api_funcs.h"
	.loc	7 426 12                ## /Users/zacky/.erlenv/releases/21.1/lib/erlang/erts-10.1/include/erl_nif_api_funcs.h:426:12
	movl	$2, %esi
	xorl	%eax, %eax
	movq	%r15, %rdi
	movq	%r14, %rdx
	movq	%rbx, %rcx
	addq	$8, %rsp
	popq	%rbx
Ltmp87:
	popq	%r12
Ltmp88:
	popq	%r13
Ltmp89:
	popq	%r14
Ltmp90:
	popq	%r15
Ltmp91:
	popq	%rbp
	jmp	_enif_make_tuple        ## TAILCALL
Ltmp92:
Lfunc_end5:
	.cfi_endproc
                                        ## -- End function
	.p2align	4, 0x90         ## -- Begin function asm_1_nif_ii
_asm_1_nif_ii:                          ## @asm_1_nif_ii
Lfunc_begin6:
	.loc	3 87 0                  ## native/lib.c:87:0
	.cfi_startproc
## %bb.0:
	pushq	%rbp
	.cfi_def_cfa_offset 16
	.cfi_offset %rbp, -16
	movq	%rsp, %rbp
	.cfi_def_cfa_register %rbp
	pushq	%r14
	pushq	%rbx
	subq	$16, %rsp
	.cfi_offset %rbx, -32
	.cfi_offset %r14, -24
	##DEBUG_VALUE: asm_1_nif_ii:env <- $rdi
	##DEBUG_VALUE: asm_1_nif_ii:argc <- $esi
	##DEBUG_VALUE: asm_1_nif_ii:argv <- $rdx
Ltmp93:
	##DEBUG_VALUE: enif_make_tuple2:env <- $rdi
	##DEBUG_VALUE: enif_make_tuple2:env <- $rdi
	movq	%rdx, %rbx
	movq	%rdi, %r14
Ltmp94:
	##DEBUG_VALUE: enif_make_tuple2:env <- $r14
	##DEBUG_VALUE: enif_make_tuple2:env <- $r14
	##DEBUG_VALUE: asm_1_nif_ii:argv <- $rbx
	##DEBUG_VALUE: asm_1_nif_ii:env <- $r14
	.loc	3 89 44 prologue_end    ## native/lib.c:89:44
	movq	(%rdx), %rsi
Ltmp95:
	.loc	3 0 44 is_stmt 0        ## native/lib.c:0:44
	leaq	-32(%rbp), %rdx
Ltmp96:
	##DEBUG_VALUE: asm_1_nif_ii:a <- [DW_OP_constu 32, DW_OP_minus, DW_OP_deref] $rbp
	.loc	3 89 24                 ## native/lib.c:89:24
	callq	_enif_get_long
	.loc	3 89 57                 ## native/lib.c:89:57
	testl	%eax, %eax
Ltmp97:
	.loc	3 89 6                  ## native/lib.c:89:6
	je	LBB6_4
Ltmp98:
## %bb.1:
	##DEBUG_VALUE: asm_1_nif_ii:a <- [DW_OP_constu 32, DW_OP_minus, DW_OP_deref] $rbp
	##DEBUG_VALUE: asm_1_nif_ii:env <- $r14
	##DEBUG_VALUE: asm_1_nif_ii:argv <- $rbx
	.loc	3 92 44 is_stmt 1       ## native/lib.c:92:44
	movq	8(%rbx), %rsi
	leaq	-24(%rbp), %rdx
Ltmp99:
	##DEBUG_VALUE: asm_1_nif_ii:b <- [DW_OP_constu 24, DW_OP_minus, DW_OP_deref] $rbp
	.loc	3 92 24 is_stmt 0       ## native/lib.c:92:24
	movq	%r14, %rdi
	callq	_enif_get_long
	.loc	3 92 57                 ## native/lib.c:92:57
	testl	%eax, %eax
Ltmp100:
	.loc	3 92 6                  ## native/lib.c:92:6
	je	LBB6_4
Ltmp101:
## %bb.2:
	##DEBUG_VALUE: asm_1_nif_ii:b <- [DW_OP_constu 24, DW_OP_minus, DW_OP_deref] $rbp
	##DEBUG_VALUE: asm_1_nif_ii:a <- [DW_OP_constu 32, DW_OP_minus, DW_OP_deref] $rbp
	##DEBUG_VALUE: asm_1_nif_ii:env <- $r14
	##DEBUG_VALUE: asm_1_nif_ii:argv <- $rbx
	.loc	3 98 48 is_stmt 1       ## native/lib.c:98:48
	movq	-32(%rbp), %rsi
Ltmp102:
	##DEBUG_VALUE: asm_1_nif_ii:a <- $rsi
	.loc	3 98 23 is_stmt 0       ## native/lib.c:98:23
	addq	-24(%rbp), %rsi
Ltmp103:
	.loc	3 98 6                  ## native/lib.c:98:6
	jo	LBB6_5
Ltmp104:
## %bb.3:
	##DEBUG_VALUE: asm_1_nif_ii:b <- [DW_OP_constu 24, DW_OP_minus, DW_OP_deref] $rbp
	##DEBUG_VALUE: asm_1_nif_ii:env <- $r14
	##DEBUG_VALUE: asm_1_nif_ii:argv <- $rbx
	##DEBUG_VALUE: asm_1_nif_ii:result <- $rsi
	.loc	3 102 32 is_stmt 1      ## native/lib.c:102:32
	movq	_ok_atom(%rip), %rbx
Ltmp105:
	.loc	3 102 41 is_stmt 0      ## native/lib.c:102:41
	movq	%r14, %rdi
	callq	_enif_make_long
Ltmp106:
	movq	%rax, %rcx
Ltmp107:
	##DEBUG_VALUE: enif_make_tuple2:e2 <- $rcx
	##DEBUG_VALUE: enif_make_tuple2:e1 <- $rbx
	.loc	7 426 12 is_stmt 1      ## /Users/zacky/.erlenv/releases/21.1/lib/erlang/erts-10.1/include/erl_nif_api_funcs.h:426:12
	movl	$2, %esi
	xorl	%eax, %eax
	movq	%r14, %rdi
	movq	%rbx, %rdx
Ltmp108:
LBB6_6:
	##DEBUG_VALUE: asm_1_nif_ii:b <- [DW_OP_constu 24, DW_OP_minus, DW_OP_deref] $rbp
	##DEBUG_VALUE: asm_1_nif_ii:env <- $r14
	.loc	7 426 12 is_stmt 0      ## /Users/zacky/.erlenv/releases/21.1/lib/erlang/erts-10.1/include/erl_nif_api_funcs.h:426:12
	callq	_enif_make_tuple
Ltmp109:
LBB6_7:
	##DEBUG_VALUE: asm_1_nif_ii:env <- $r14
	.loc	3 107 1 is_stmt 1       ## native/lib.c:107:1
	addq	$16, %rsp
	popq	%rbx
	popq	%r14
Ltmp110:
	popq	%rbp
	retq
LBB6_4:
Ltmp111:
	##DEBUG_VALUE: asm_1_nif_ii:a <- [DW_OP_constu 32, DW_OP_minus, DW_OP_deref] $rbp
	##DEBUG_VALUE: asm_1_nif_ii:env <- $r14
	##DEBUG_VALUE: asm_1_nif_ii:argv <- $rbx
	.loc	3 104 10                ## native/lib.c:104:10
	movq	_arithmetic_error(%rip), %rax
	jmp	LBB6_7
Ltmp112:
LBB6_5:
	##DEBUG_VALUE: asm_1_nif_ii:b <- [DW_OP_constu 24, DW_OP_minus, DW_OP_deref] $rbp
	##DEBUG_VALUE: asm_1_nif_ii:env <- $r14
	##DEBUG_VALUE: asm_1_nif_ii:argv <- $rbx
	.loc	3 106 32                ## native/lib.c:106:32
	movq	_error_atom(%rip), %rdx
	.loc	3 106 44 is_stmt 0      ## native/lib.c:106:44
	movq	_arithmetic_error_atom(%rip), %rcx
Ltmp113:
	##DEBUG_VALUE: enif_make_tuple2:e2 <- $rcx
	##DEBUG_VALUE: enif_make_tuple2:e1 <- $rdx
	.loc	7 426 12 is_stmt 1      ## /Users/zacky/.erlenv/releases/21.1/lib/erlang/erts-10.1/include/erl_nif_api_funcs.h:426:12
	movl	$2, %esi
	xorl	%eax, %eax
	movq	%r14, %rdi
	jmp	LBB6_6
Ltmp114:
Lfunc_end6:
	.cfi_endproc
                                        ## -- End function
	.p2align	4, 0x90         ## -- Begin function asm_1_nif_uu
_asm_1_nif_uu:                          ## @asm_1_nif_uu
Lfunc_begin7:
	.loc	3 112 0                 ## native/lib.c:112:0
	.cfi_startproc
## %bb.0:
	pushq	%rbp
	.cfi_def_cfa_offset 16
	.cfi_offset %rbp, -16
	movq	%rsp, %rbp
	.cfi_def_cfa_register %rbp
	pushq	%r14
	pushq	%rbx
	subq	$16, %rsp
	.cfi_offset %rbx, -32
	.cfi_offset %r14, -24
	##DEBUG_VALUE: asm_1_nif_uu:env <- $rdi
	##DEBUG_VALUE: asm_1_nif_uu:argc <- $esi
	##DEBUG_VALUE: asm_1_nif_uu:argv <- $rdx
Ltmp115:
	##DEBUG_VALUE: enif_make_tuple2:env <- $rdi
	##DEBUG_VALUE: enif_make_tuple2:env <- $rdi
	movq	%rdx, %rbx
	movq	%rdi, %r14
Ltmp116:
	##DEBUG_VALUE: enif_make_tuple2:env <- $r14
	##DEBUG_VALUE: enif_make_tuple2:env <- $r14
	##DEBUG_VALUE: asm_1_nif_uu:argv <- $rbx
	##DEBUG_VALUE: asm_1_nif_uu:env <- $r14
	.loc	3 114 45 prologue_end   ## native/lib.c:114:45
	movq	(%rdx), %rsi
Ltmp117:
	.loc	3 0 45 is_stmt 0        ## native/lib.c:0:45
	leaq	-32(%rbp), %rdx
Ltmp118:
	##DEBUG_VALUE: asm_1_nif_uu:a <- [DW_OP_constu 32, DW_OP_minus, DW_OP_deref] $rbp
	.loc	3 114 24                ## native/lib.c:114:24
	callq	_enif_get_ulong
	.loc	3 114 58                ## native/lib.c:114:58
	testl	%eax, %eax
Ltmp119:
	.loc	3 114 6                 ## native/lib.c:114:6
	je	LBB7_4
Ltmp120:
## %bb.1:
	##DEBUG_VALUE: asm_1_nif_uu:a <- [DW_OP_constu 32, DW_OP_minus, DW_OP_deref] $rbp
	##DEBUG_VALUE: asm_1_nif_uu:env <- $r14
	##DEBUG_VALUE: asm_1_nif_uu:argv <- $rbx
	.loc	3 117 45 is_stmt 1      ## native/lib.c:117:45
	movq	8(%rbx), %rsi
	leaq	-24(%rbp), %rdx
Ltmp121:
	##DEBUG_VALUE: asm_1_nif_uu:b <- [DW_OP_constu 24, DW_OP_minus, DW_OP_deref] $rbp
	.loc	3 117 24 is_stmt 0      ## native/lib.c:117:24
	movq	%r14, %rdi
	callq	_enif_get_ulong
	.loc	3 117 58                ## native/lib.c:117:58
	testl	%eax, %eax
Ltmp122:
	.loc	3 117 6                 ## native/lib.c:117:6
	je	LBB7_4
Ltmp123:
## %bb.2:
	##DEBUG_VALUE: asm_1_nif_uu:b <- [DW_OP_constu 24, DW_OP_minus, DW_OP_deref] $rbp
	##DEBUG_VALUE: asm_1_nif_uu:a <- [DW_OP_constu 32, DW_OP_minus, DW_OP_deref] $rbp
	##DEBUG_VALUE: asm_1_nif_uu:env <- $r14
	##DEBUG_VALUE: asm_1_nif_uu:argv <- $rbx
	.loc	3 123 48 is_stmt 1      ## native/lib.c:123:48
	movq	-32(%rbp), %rsi
Ltmp124:
	##DEBUG_VALUE: asm_1_nif_uu:a <- $rsi
	.loc	3 123 23 is_stmt 0      ## native/lib.c:123:23
	addq	-24(%rbp), %rsi
Ltmp125:
	.loc	3 123 6                 ## native/lib.c:123:6
	jb	LBB7_5
Ltmp126:
## %bb.3:
	##DEBUG_VALUE: asm_1_nif_uu:b <- [DW_OP_constu 24, DW_OP_minus, DW_OP_deref] $rbp
	##DEBUG_VALUE: asm_1_nif_uu:env <- $r14
	##DEBUG_VALUE: asm_1_nif_uu:argv <- $rbx
	##DEBUG_VALUE: asm_1_nif_uu:result <- $rsi
	.loc	3 127 32 is_stmt 1      ## native/lib.c:127:32
	movq	_ok_atom(%rip), %rbx
Ltmp127:
	.loc	3 127 41 is_stmt 0      ## native/lib.c:127:41
	movq	%r14, %rdi
	callq	_enif_make_ulong
Ltmp128:
	movq	%rax, %rcx
Ltmp129:
	##DEBUG_VALUE: enif_make_tuple2:e2 <- $rcx
	##DEBUG_VALUE: enif_make_tuple2:e1 <- $rbx
	.loc	7 426 12 is_stmt 1      ## /Users/zacky/.erlenv/releases/21.1/lib/erlang/erts-10.1/include/erl_nif_api_funcs.h:426:12
	movl	$2, %esi
	xorl	%eax, %eax
	movq	%r14, %rdi
	movq	%rbx, %rdx
Ltmp130:
LBB7_6:
	##DEBUG_VALUE: asm_1_nif_uu:b <- [DW_OP_constu 24, DW_OP_minus, DW_OP_deref] $rbp
	##DEBUG_VALUE: asm_1_nif_uu:env <- $r14
	.loc	7 426 12 is_stmt 0      ## /Users/zacky/.erlenv/releases/21.1/lib/erlang/erts-10.1/include/erl_nif_api_funcs.h:426:12
	callq	_enif_make_tuple
Ltmp131:
LBB7_7:
	##DEBUG_VALUE: asm_1_nif_uu:env <- $r14
	.loc	3 132 1 is_stmt 1       ## native/lib.c:132:1
	addq	$16, %rsp
	popq	%rbx
	popq	%r14
Ltmp132:
	popq	%rbp
	retq
LBB7_4:
Ltmp133:
	##DEBUG_VALUE: asm_1_nif_uu:a <- [DW_OP_constu 32, DW_OP_minus, DW_OP_deref] $rbp
	##DEBUG_VALUE: asm_1_nif_uu:env <- $r14
	##DEBUG_VALUE: asm_1_nif_uu:argv <- $rbx
	.loc	3 129 10                ## native/lib.c:129:10
	movq	_arithmetic_error(%rip), %rax
	jmp	LBB7_7
Ltmp134:
LBB7_5:
	##DEBUG_VALUE: asm_1_nif_uu:b <- [DW_OP_constu 24, DW_OP_minus, DW_OP_deref] $rbp
	##DEBUG_VALUE: asm_1_nif_uu:env <- $r14
	##DEBUG_VALUE: asm_1_nif_uu:argv <- $rbx
	.loc	3 131 32                ## native/lib.c:131:32
	movq	_error_atom(%rip), %rdx
	.loc	3 131 44 is_stmt 0      ## native/lib.c:131:44
	movq	_arithmetic_error_atom(%rip), %rcx
Ltmp135:
	##DEBUG_VALUE: enif_make_tuple2:e2 <- $rcx
	##DEBUG_VALUE: enif_make_tuple2:e1 <- $rdx
	.loc	7 426 12 is_stmt 1      ## /Users/zacky/.erlenv/releases/21.1/lib/erlang/erts-10.1/include/erl_nif_api_funcs.h:426:12
	movl	$2, %esi
	xorl	%eax, %eax
	movq	%r14, %rdi
	jmp	LBB7_6
Ltmp136:
Lfunc_end7:
	.cfi_endproc
                                        ## -- End function
	.p2align	4, 0x90         ## -- Begin function asm_1_nif_bb
_asm_1_nif_bb:                          ## @asm_1_nif_bb
Lfunc_begin8:
	.loc	3 136 0                 ## native/lib.c:136:0
	.cfi_startproc
## %bb.0:
	pushq	%rbp
	.cfi_def_cfa_offset 16
	.cfi_offset %rbp, -16
	movq	%rsp, %rbp
	.cfi_def_cfa_register %rbp
	pushq	%r15
	pushq	%r14
	pushq	%rbx
	subq	$40, %rsp
	.cfi_offset %rbx, -40
	.cfi_offset %r14, -32
	.cfi_offset %r15, -24
	##DEBUG_VALUE: asm_1_nif_bb:env <- $rdi
	##DEBUG_VALUE: asm_1_nif_bb:argc <- $esi
	##DEBUG_VALUE: asm_1_nif_bb:argv <- $rdx
Ltmp137:
	##DEBUG_VALUE: enif_make_tuple2:env <- $rdi
	movq	%rdx, %rbx
	movq	%rdi, %r14
Ltmp138:
	##DEBUG_VALUE: enif_make_tuple2:env <- $r14
	##DEBUG_VALUE: asm_1_nif_bb:argv <- $rbx
	##DEBUG_VALUE: asm_1_nif_bb:env <- $r14
	.loc	3 139 46 prologue_end   ## native/lib.c:139:46
	movq	(%rdx), %rsi
Ltmp139:
	.loc	3 0 46 is_stmt 0        ## native/lib.c:0:46
	leaq	-28(%rbp), %rdx
Ltmp140:
	##DEBUG_VALUE: asm_1_nif_bb:a_neg <- [DW_OP_constu 28, DW_OP_minus, DW_OP_deref] $rbp
	leaq	-48(%rbp), %rcx
Ltmp141:
	##DEBUG_VALUE: asm_1_nif_bb:a_v <- [DW_OP_constu 48, DW_OP_minus, DW_OP_deref] $rbp
	.loc	3 139 24                ## native/lib.c:139:24
	callq	_enif_get_big_num
	.loc	3 139 69                ## native/lib.c:139:69
	testl	%eax, %eax
Ltmp142:
	.loc	3 139 6                 ## native/lib.c:139:6
	je	LBB8_5
Ltmp143:
## %bb.1:
	##DEBUG_VALUE: asm_1_nif_bb:a_v <- [DW_OP_constu 48, DW_OP_minus, DW_OP_deref] $rbp
	##DEBUG_VALUE: asm_1_nif_bb:a_neg <- [DW_OP_constu 28, DW_OP_minus, DW_OP_deref] $rbp
	##DEBUG_VALUE: asm_1_nif_bb:env <- $r14
	##DEBUG_VALUE: asm_1_nif_bb:argv <- $rbx
	.loc	3 142 46 is_stmt 1      ## native/lib.c:142:46
	movq	8(%rbx), %rsi
	leaq	-52(%rbp), %rdx
Ltmp144:
	##DEBUG_VALUE: asm_1_nif_bb:b_neg <- [DW_OP_constu 52, DW_OP_minus, DW_OP_deref] $rbp
	.loc	3 0 46 is_stmt 0        ## native/lib.c:0:46
	leaq	-40(%rbp), %rcx
Ltmp145:
	##DEBUG_VALUE: asm_1_nif_bb:b_v <- [DW_OP_constu 40, DW_OP_minus, DW_OP_deref] $rbp
	.loc	3 142 24                ## native/lib.c:142:24
	movq	%r14, %rdi
	callq	_enif_get_big_num
	.loc	3 142 69                ## native/lib.c:142:69
	testl	%eax, %eax
Ltmp146:
	.loc	3 142 6                 ## native/lib.c:142:6
	je	LBB8_5
Ltmp147:
## %bb.2:
	##DEBUG_VALUE: asm_1_nif_bb:b_v <- [DW_OP_constu 40, DW_OP_minus, DW_OP_deref] $rbp
	##DEBUG_VALUE: asm_1_nif_bb:b_neg <- [DW_OP_constu 52, DW_OP_minus, DW_OP_deref] $rbp
	##DEBUG_VALUE: asm_1_nif_bb:a_v <- [DW_OP_constu 48, DW_OP_minus, DW_OP_deref] $rbp
	##DEBUG_VALUE: asm_1_nif_bb:a_neg <- [DW_OP_constu 28, DW_OP_minus, DW_OP_deref] $rbp
	##DEBUG_VALUE: asm_1_nif_bb:env <- $r14
	##DEBUG_VALUE: asm_1_nif_bb:argv <- $rbx
	.loc	3 146 47 is_stmt 1      ## native/lib.c:146:47
	movl	-28(%rbp), %esi
Ltmp148:
	##DEBUG_VALUE: asm_1_nif_bb:a_neg <- $esi
	.loc	3 146 54 is_stmt 0      ## native/lib.c:146:54
	movq	-48(%rbp), %rbx
Ltmp149:
	##DEBUG_VALUE: asm_1_nif_bb:a_v <- $rbx
	.loc	3 146 24                ## native/lib.c:146:24
	movq	%r14, %rdi
	movq	%rbx, %rdx
	callq	_enif_make_big_num
Ltmp150:
	movq	%rax, %r15
Ltmp151:
	##DEBUG_VALUE: asm_1_nif_bb:result <- $r15
	.loc	3 148 18 is_stmt 1      ## native/lib.c:148:18
	movq	8(%rbx), %rdi
	.loc	3 148 3 is_stmt 0       ## native/lib.c:148:3
	callq	_enif_free
	.loc	3 149 3 is_stmt 1       ## native/lib.c:149:3
	movq	%rbx, %rdi
	callq	_enif_free
	.loc	3 150 13                ## native/lib.c:150:13
	movq	-40(%rbp), %rbx
Ltmp152:
	##DEBUG_VALUE: asm_1_nif_bb:b_v <- $rbx
	.loc	3 150 18 is_stmt 0      ## native/lib.c:150:18
	movq	8(%rbx), %rdi
	.loc	3 150 3                 ## native/lib.c:150:3
	callq	_enif_free
	.loc	3 151 3 is_stmt 1       ## native/lib.c:151:3
	movq	%rbx, %rdi
	callq	_enif_free
	.loc	3 153 32                ## native/lib.c:153:32
	movq	_ok_atom(%rip), %rdx
Ltmp153:
	##DEBUG_VALUE: enif_make_tuple2:e1 <- $rdx
	##DEBUG_VALUE: enif_make_tuple2:e2 <- $r15
	.loc	7 426 12                ## /Users/zacky/.erlenv/releases/21.1/lib/erlang/erts-10.1/include/erl_nif_api_funcs.h:426:12
	movl	$2, %esi
	xorl	%eax, %eax
	movq	%r14, %rdi
	movq	%r15, %rcx
	callq	_enif_make_tuple
Ltmp154:
LBB8_3:
	##DEBUG_VALUE: asm_1_nif_bb:env <- $r14
	.loc	3 154 1                 ## native/lib.c:154:1
	addq	$40, %rsp
	popq	%rbx
	popq	%r14
Ltmp155:
	popq	%r15
	popq	%rbp
	retq
Ltmp156:
LBB8_5:
	##DEBUG_VALUE: asm_1_nif_bb:a_v <- [DW_OP_constu 48, DW_OP_minus, DW_OP_deref] $rbp
	##DEBUG_VALUE: asm_1_nif_bb:a_neg <- [DW_OP_constu 28, DW_OP_minus, DW_OP_deref] $rbp
	##DEBUG_VALUE: asm_1_nif_bb:env <- $r14
	##DEBUG_VALUE: asm_1_nif_bb:argv <- $rbx
	.loc	3 0 1 is_stmt 0         ## native/lib.c:0:1
	movq	_arithmetic_error(%rip), %rax
	jmp	LBB8_3
Lfunc_end8:
	.cfi_endproc
                                        ## -- End function
	.p2align	4, 0x90         ## -- Begin function asm_1_nif_if
_asm_1_nif_if:                          ## @asm_1_nif_if
Lfunc_begin9:
	.loc	3 158 0 is_stmt 1       ## native/lib.c:158:0
	.cfi_startproc
## %bb.0:
	pushq	%rbp
	.cfi_def_cfa_offset 16
	.cfi_offset %rbp, -16
	movq	%rsp, %rbp
	.cfi_def_cfa_register %rbp
	pushq	%r14
	pushq	%rbx
	subq	$16, %rsp
	.cfi_offset %rbx, -32
	.cfi_offset %r14, -24
	##DEBUG_VALUE: asm_1_nif_if:env <- $rdi
	##DEBUG_VALUE: asm_1_nif_if:argc <- $esi
	##DEBUG_VALUE: asm_1_nif_if:argv <- $rdx
Ltmp157:
	##DEBUG_VALUE: enif_make_tuple2:env <- $rdi
	movq	%rdx, %rbx
	movq	%rdi, %r14
Ltmp158:
	##DEBUG_VALUE: enif_make_tuple2:env <- $r14
	##DEBUG_VALUE: asm_1_nif_if:argv <- $rbx
	##DEBUG_VALUE: asm_1_nif_if:env <- $r14
	.loc	3 161 44 prologue_end   ## native/lib.c:161:44
	movq	(%rdx), %rsi
Ltmp159:
	.loc	3 0 44 is_stmt 0        ## native/lib.c:0:44
	leaq	-32(%rbp), %rdx
Ltmp160:
	##DEBUG_VALUE: asm_1_nif_if:a <- [DW_OP_constu 32, DW_OP_minus, DW_OP_deref] $rbp
	.loc	3 161 24                ## native/lib.c:161:24
	callq	_enif_get_long
	.loc	3 161 57                ## native/lib.c:161:57
	testl	%eax, %eax
Ltmp161:
	.loc	3 161 6                 ## native/lib.c:161:6
	je	LBB9_3
Ltmp162:
## %bb.1:
	##DEBUG_VALUE: asm_1_nif_if:a <- [DW_OP_constu 32, DW_OP_minus, DW_OP_deref] $rbp
	##DEBUG_VALUE: asm_1_nif_if:env <- $r14
	##DEBUG_VALUE: asm_1_nif_if:argv <- $rbx
	.loc	3 164 45 is_stmt 1      ## native/lib.c:164:45
	movq	8(%rbx), %rsi
	leaq	-24(%rbp), %rdx
Ltmp163:
	##DEBUG_VALUE: asm_1_nif_if:b <- [DW_OP_constu 24, DW_OP_minus, DW_OP_deref] $rbp
	.loc	3 164 24 is_stmt 0      ## native/lib.c:164:24
	movq	%r14, %rdi
	callq	_enif_get_double
	.loc	3 164 58                ## native/lib.c:164:58
	testl	%eax, %eax
Ltmp164:
	.loc	3 164 6                 ## native/lib.c:164:6
	je	LBB9_3
Ltmp165:
## %bb.2:
	##DEBUG_VALUE: asm_1_nif_if:b <- [DW_OP_constu 24, DW_OP_minus, DW_OP_deref] $rbp
	##DEBUG_VALUE: asm_1_nif_if:a <- [DW_OP_constu 32, DW_OP_minus, DW_OP_deref] $rbp
	##DEBUG_VALUE: asm_1_nif_if:env <- $r14
	##DEBUG_VALUE: asm_1_nif_if:argv <- $rbx
	.loc	3 167 20 is_stmt 1      ## native/lib.c:167:20
	cvtsi2sdq	-32(%rbp), %xmm0
	.loc	3 167 31 is_stmt 0      ## native/lib.c:167:31
	addsd	-24(%rbp), %xmm0
Ltmp166:
	##DEBUG_VALUE: asm_1_nif_if:result <- $xmm0
	.loc	3 168 32 is_stmt 1      ## native/lib.c:168:32
	movq	_ok_atom(%rip), %rbx
Ltmp167:
	.loc	3 168 41 is_stmt 0      ## native/lib.c:168:41
	movq	%r14, %rdi
	callq	_enif_make_double
Ltmp168:
	movq	%rax, %rcx
Ltmp169:
	##DEBUG_VALUE: enif_make_tuple2:e2 <- $rcx
	##DEBUG_VALUE: enif_make_tuple2:e1 <- $rbx
	.loc	7 426 12 is_stmt 1      ## /Users/zacky/.erlenv/releases/21.1/lib/erlang/erts-10.1/include/erl_nif_api_funcs.h:426:12
	movl	$2, %esi
	xorl	%eax, %eax
	movq	%r14, %rdi
	movq	%rbx, %rdx
	callq	_enif_make_tuple
Ltmp170:
LBB9_4:
	##DEBUG_VALUE: asm_1_nif_if:a <- [DW_OP_constu 32, DW_OP_minus, DW_OP_deref] $rbp
	##DEBUG_VALUE: asm_1_nif_if:env <- $r14
	.loc	3 171 1                 ## native/lib.c:171:1
	addq	$16, %rsp
	popq	%rbx
	popq	%r14
Ltmp171:
	popq	%rbp
	retq
LBB9_3:
	##DEBUG_VALUE: asm_1_nif_if:a <- [DW_OP_constu 32, DW_OP_minus, DW_OP_deref] $rbp
Ltmp172:
	##DEBUG_VALUE: asm_1_nif_if:env <- $r14
	##DEBUG_VALUE: asm_1_nif_if:argv <- $rbx
	.loc	3 170 10                ## native/lib.c:170:10
	movq	_arithmetic_error(%rip), %rax
	jmp	LBB9_4
Ltmp173:
Lfunc_end9:
	.cfi_endproc
                                        ## -- End function
	.section	__TEXT,__literal16,16byte_literals
	.p2align	4               ## -- Begin function asm_1_nif_uf
LCPI10_0:
	.long	1127219200              ## 0x43300000
	.long	1160773632              ## 0x45300000
	.long	0                       ## 0x0
	.long	0                       ## 0x0
LCPI10_1:
	.quad	4841369599423283200     ## double 4503599627370496
	.quad	4985484787499139072     ## double 1.9342813113834067E+25
	.section	__TEXT,__text,regular,pure_instructions
	.p2align	4, 0x90
_asm_1_nif_uf:                          ## @asm_1_nif_uf
Lfunc_begin10:
	.loc	3 176 0                 ## native/lib.c:176:0
	.cfi_startproc
## %bb.0:
	pushq	%rbp
	.cfi_def_cfa_offset 16
	.cfi_offset %rbp, -16
	movq	%rsp, %rbp
	.cfi_def_cfa_register %rbp
	pushq	%r14
	pushq	%rbx
	subq	$16, %rsp
	.cfi_offset %rbx, -32
	.cfi_offset %r14, -24
	##DEBUG_VALUE: asm_1_nif_uf:env <- $rdi
	##DEBUG_VALUE: asm_1_nif_uf:argc <- $esi
	##DEBUG_VALUE: asm_1_nif_uf:argv <- $rdx
Ltmp174:
	##DEBUG_VALUE: enif_make_tuple2:env <- $rdi
	movq	%rdx, %rbx
	movq	%rdi, %r14
Ltmp175:
	##DEBUG_VALUE: enif_make_tuple2:env <- $r14
	##DEBUG_VALUE: asm_1_nif_uf:argv <- $rbx
	##DEBUG_VALUE: asm_1_nif_uf:env <- $r14
	.loc	3 179 45 prologue_end   ## native/lib.c:179:45
	movq	(%rdx), %rsi
Ltmp176:
	.loc	3 0 45 is_stmt 0        ## native/lib.c:0:45
	leaq	-32(%rbp), %rdx
Ltmp177:
	##DEBUG_VALUE: asm_1_nif_uf:a <- [DW_OP_constu 32, DW_OP_minus, DW_OP_deref] $rbp
	.loc	3 179 24                ## native/lib.c:179:24
	callq	_enif_get_ulong
	.loc	3 179 58                ## native/lib.c:179:58
	testl	%eax, %eax
Ltmp178:
	.loc	3 179 6                 ## native/lib.c:179:6
	je	LBB10_3
Ltmp179:
## %bb.1:
	##DEBUG_VALUE: asm_1_nif_uf:a <- [DW_OP_constu 32, DW_OP_minus, DW_OP_deref] $rbp
	##DEBUG_VALUE: asm_1_nif_uf:env <- $r14
	##DEBUG_VALUE: asm_1_nif_uf:argv <- $rbx
	.loc	3 182 45 is_stmt 1      ## native/lib.c:182:45
	movq	8(%rbx), %rsi
	leaq	-24(%rbp), %rdx
Ltmp180:
	##DEBUG_VALUE: asm_1_nif_uf:b <- [DW_OP_constu 24, DW_OP_minus, DW_OP_deref] $rbp
	.loc	3 182 24 is_stmt 0      ## native/lib.c:182:24
	movq	%r14, %rdi
	callq	_enif_get_double
	.loc	3 182 58                ## native/lib.c:182:58
	testl	%eax, %eax
Ltmp181:
	.loc	3 182 6                 ## native/lib.c:182:6
	je	LBB10_3
Ltmp182:
## %bb.2:
	##DEBUG_VALUE: asm_1_nif_uf:b <- [DW_OP_constu 24, DW_OP_minus, DW_OP_deref] $rbp
	##DEBUG_VALUE: asm_1_nif_uf:a <- [DW_OP_constu 32, DW_OP_minus, DW_OP_deref] $rbp
	##DEBUG_VALUE: asm_1_nif_uf:env <- $r14
	##DEBUG_VALUE: asm_1_nif_uf:argv <- $rbx
	.loc	3 185 20 is_stmt 1      ## native/lib.c:185:20
	movsd	-32(%rbp), %xmm0        ## xmm0 = mem[0],zero
	unpcklps	LCPI10_0(%rip), %xmm0 ## xmm0 = xmm0[0],mem[0],xmm0[1],mem[1]
	subpd	LCPI10_1(%rip), %xmm0
	haddpd	%xmm0, %xmm0
	.loc	3 185 31 is_stmt 0      ## native/lib.c:185:31
	addsd	-24(%rbp), %xmm0
Ltmp183:
	##DEBUG_VALUE: asm_1_nif_uf:result <- $xmm0
	.loc	3 186 32 is_stmt 1      ## native/lib.c:186:32
	movq	_ok_atom(%rip), %rbx
Ltmp184:
	.loc	3 186 41 is_stmt 0      ## native/lib.c:186:41
	movq	%r14, %rdi
	callq	_enif_make_double
Ltmp185:
	movq	%rax, %rcx
Ltmp186:
	##DEBUG_VALUE: enif_make_tuple2:e2 <- $rcx
	##DEBUG_VALUE: enif_make_tuple2:e1 <- $rbx
	.loc	7 426 12 is_stmt 1      ## /Users/zacky/.erlenv/releases/21.1/lib/erlang/erts-10.1/include/erl_nif_api_funcs.h:426:12
	movl	$2, %esi
	xorl	%eax, %eax
	movq	%r14, %rdi
	movq	%rbx, %rdx
	callq	_enif_make_tuple
Ltmp187:
LBB10_4:
	##DEBUG_VALUE: asm_1_nif_uf:a <- [DW_OP_constu 32, DW_OP_minus, DW_OP_deref] $rbp
	##DEBUG_VALUE: asm_1_nif_uf:env <- $r14
	.loc	3 189 1                 ## native/lib.c:189:1
	addq	$16, %rsp
	popq	%rbx
	popq	%r14
Ltmp188:
	popq	%rbp
	retq
LBB10_3:
	##DEBUG_VALUE: asm_1_nif_uf:a <- [DW_OP_constu 32, DW_OP_minus, DW_OP_deref] $rbp
Ltmp189:
	##DEBUG_VALUE: asm_1_nif_uf:env <- $r14
	##DEBUG_VALUE: asm_1_nif_uf:argv <- $rbx
	.loc	3 188 10                ## native/lib.c:188:10
	movq	_arithmetic_error(%rip), %rax
	jmp	LBB10_4
Ltmp190:
Lfunc_end10:
	.cfi_endproc
                                        ## -- End function
	.p2align	4, 0x90         ## -- Begin function asm_1_nif_fi
_asm_1_nif_fi:                          ## @asm_1_nif_fi
Lfunc_begin11:
	.loc	3 193 0                 ## native/lib.c:193:0
	.cfi_startproc
## %bb.0:
	pushq	%rbp
	.cfi_def_cfa_offset 16
	.cfi_offset %rbp, -16
	movq	%rsp, %rbp
	.cfi_def_cfa_register %rbp
	pushq	%r14
	pushq	%rbx
	subq	$16, %rsp
	.cfi_offset %rbx, -32
	.cfi_offset %r14, -24
	##DEBUG_VALUE: asm_1_nif_fi:env <- $rdi
	##DEBUG_VALUE: asm_1_nif_fi:argc <- $esi
	##DEBUG_VALUE: asm_1_nif_fi:argv <- $rdx
Ltmp191:
	##DEBUG_VALUE: enif_make_tuple2:env <- $rdi
	movq	%rdx, %rbx
	movq	%rdi, %r14
Ltmp192:
	##DEBUG_VALUE: enif_make_tuple2:env <- $r14
	##DEBUG_VALUE: asm_1_nif_fi:argv <- $rbx
	##DEBUG_VALUE: asm_1_nif_fi:env <- $r14
	.loc	3 196 45 prologue_end   ## native/lib.c:196:45
	movq	(%rdx), %rsi
Ltmp193:
	.loc	3 0 45 is_stmt 0        ## native/lib.c:0:45
	leaq	-32(%rbp), %rdx
Ltmp194:
	##DEBUG_VALUE: asm_1_nif_fi:a <- [DW_OP_constu 32, DW_OP_minus, DW_OP_deref] $rbp
	.loc	3 196 24                ## native/lib.c:196:24
	callq	_enif_get_double
	.loc	3 196 58                ## native/lib.c:196:58
	testl	%eax, %eax
Ltmp195:
	.loc	3 196 6                 ## native/lib.c:196:6
	je	LBB11_3
Ltmp196:
## %bb.1:
	##DEBUG_VALUE: asm_1_nif_fi:a <- [DW_OP_constu 32, DW_OP_minus, DW_OP_deref] $rbp
	##DEBUG_VALUE: asm_1_nif_fi:env <- $r14
	##DEBUG_VALUE: asm_1_nif_fi:argv <- $rbx
	.loc	3 199 44 is_stmt 1      ## native/lib.c:199:44
	movq	8(%rbx), %rsi
	leaq	-24(%rbp), %rdx
Ltmp197:
	##DEBUG_VALUE: asm_1_nif_fi:b <- [DW_OP_constu 24, DW_OP_minus, DW_OP_deref] $rbp
	.loc	3 199 24 is_stmt 0      ## native/lib.c:199:24
	movq	%r14, %rdi
	callq	_enif_get_long
	.loc	3 199 57                ## native/lib.c:199:57
	testl	%eax, %eax
Ltmp198:
	.loc	3 199 6                 ## native/lib.c:199:6
	je	LBB11_3
Ltmp199:
## %bb.2:
	##DEBUG_VALUE: asm_1_nif_fi:b <- [DW_OP_constu 24, DW_OP_minus, DW_OP_deref] $rbp
	##DEBUG_VALUE: asm_1_nif_fi:a <- [DW_OP_constu 32, DW_OP_minus, DW_OP_deref] $rbp
	##DEBUG_VALUE: asm_1_nif_fi:env <- $r14
	##DEBUG_VALUE: asm_1_nif_fi:argv <- $rbx
	.loc	3 202 24 is_stmt 1      ## native/lib.c:202:24
	cvtsi2sdq	-24(%rbp), %xmm0
	.loc	3 202 21 is_stmt 0      ## native/lib.c:202:21
	addsd	-32(%rbp), %xmm0
Ltmp200:
	##DEBUG_VALUE: asm_1_nif_fi:result <- $xmm0
	.loc	3 203 32 is_stmt 1      ## native/lib.c:203:32
	movq	_ok_atom(%rip), %rbx
Ltmp201:
	.loc	3 203 41 is_stmt 0      ## native/lib.c:203:41
	movq	%r14, %rdi
	callq	_enif_make_double
Ltmp202:
	movq	%rax, %rcx
Ltmp203:
	##DEBUG_VALUE: enif_make_tuple2:e2 <- $rcx
	##DEBUG_VALUE: enif_make_tuple2:e1 <- $rbx
	.loc	7 426 12 is_stmt 1      ## /Users/zacky/.erlenv/releases/21.1/lib/erlang/erts-10.1/include/erl_nif_api_funcs.h:426:12
	movl	$2, %esi
	xorl	%eax, %eax
	movq	%r14, %rdi
	movq	%rbx, %rdx
	callq	_enif_make_tuple
Ltmp204:
LBB11_4:
	##DEBUG_VALUE: asm_1_nif_fi:a <- [DW_OP_constu 32, DW_OP_minus, DW_OP_deref] $rbp
	##DEBUG_VALUE: asm_1_nif_fi:env <- $r14
	.loc	3 206 1                 ## native/lib.c:206:1
	addq	$16, %rsp
	popq	%rbx
	popq	%r14
Ltmp205:
	popq	%rbp
	retq
LBB11_3:
	##DEBUG_VALUE: asm_1_nif_fi:a <- [DW_OP_constu 32, DW_OP_minus, DW_OP_deref] $rbp
Ltmp206:
	##DEBUG_VALUE: asm_1_nif_fi:env <- $r14
	##DEBUG_VALUE: asm_1_nif_fi:argv <- $rbx
	.loc	3 205 10                ## native/lib.c:205:10
	movq	_arithmetic_error(%rip), %rax
	jmp	LBB11_4
Ltmp207:
Lfunc_end11:
	.cfi_endproc
                                        ## -- End function
	.section	__TEXT,__literal16,16byte_literals
	.p2align	4               ## -- Begin function asm_1_nif_fu
LCPI12_0:
	.long	1127219200              ## 0x43300000
	.long	1160773632              ## 0x45300000
	.long	0                       ## 0x0
	.long	0                       ## 0x0
LCPI12_1:
	.quad	4841369599423283200     ## double 4503599627370496
	.quad	4985484787499139072     ## double 1.9342813113834067E+25
	.section	__TEXT,__text,regular,pure_instructions
	.p2align	4, 0x90
_asm_1_nif_fu:                          ## @asm_1_nif_fu
Lfunc_begin12:
	.loc	3 210 0                 ## native/lib.c:210:0
	.cfi_startproc
## %bb.0:
	pushq	%rbp
	.cfi_def_cfa_offset 16
	.cfi_offset %rbp, -16
	movq	%rsp, %rbp
	.cfi_def_cfa_register %rbp
	pushq	%r14
	pushq	%rbx
	subq	$16, %rsp
	.cfi_offset %rbx, -32
	.cfi_offset %r14, -24
	##DEBUG_VALUE: asm_1_nif_fu:env <- $rdi
	##DEBUG_VALUE: asm_1_nif_fu:argc <- $esi
	##DEBUG_VALUE: asm_1_nif_fu:argv <- $rdx
Ltmp208:
	##DEBUG_VALUE: enif_make_tuple2:env <- $rdi
	movq	%rdx, %rbx
	movq	%rdi, %r14
Ltmp209:
	##DEBUG_VALUE: enif_make_tuple2:env <- $r14
	##DEBUG_VALUE: asm_1_nif_fu:argv <- $rbx
	##DEBUG_VALUE: asm_1_nif_fu:env <- $r14
	.loc	3 213 45 prologue_end   ## native/lib.c:213:45
	movq	(%rdx), %rsi
Ltmp210:
	.loc	3 0 45 is_stmt 0        ## native/lib.c:0:45
	leaq	-32(%rbp), %rdx
Ltmp211:
	##DEBUG_VALUE: asm_1_nif_fu:a <- [DW_OP_constu 32, DW_OP_minus, DW_OP_deref] $rbp
	.loc	3 213 24                ## native/lib.c:213:24
	callq	_enif_get_double
	.loc	3 213 58                ## native/lib.c:213:58
	testl	%eax, %eax
Ltmp212:
	.loc	3 213 6                 ## native/lib.c:213:6
	je	LBB12_3
Ltmp213:
## %bb.1:
	##DEBUG_VALUE: asm_1_nif_fu:a <- [DW_OP_constu 32, DW_OP_minus, DW_OP_deref] $rbp
	##DEBUG_VALUE: asm_1_nif_fu:env <- $r14
	##DEBUG_VALUE: asm_1_nif_fu:argv <- $rbx
	.loc	3 216 45 is_stmt 1      ## native/lib.c:216:45
	movq	8(%rbx), %rsi
	leaq	-24(%rbp), %rdx
Ltmp214:
	##DEBUG_VALUE: asm_1_nif_fu:b <- [DW_OP_constu 24, DW_OP_minus, DW_OP_deref] $rbp
	.loc	3 216 24 is_stmt 0      ## native/lib.c:216:24
	movq	%r14, %rdi
	callq	_enif_get_ulong
	.loc	3 216 58                ## native/lib.c:216:58
	testl	%eax, %eax
Ltmp215:
	.loc	3 216 6                 ## native/lib.c:216:6
	je	LBB12_3
Ltmp216:
## %bb.2:
	##DEBUG_VALUE: asm_1_nif_fu:b <- [DW_OP_constu 24, DW_OP_minus, DW_OP_deref] $rbp
	##DEBUG_VALUE: asm_1_nif_fu:a <- [DW_OP_constu 32, DW_OP_minus, DW_OP_deref] $rbp
	##DEBUG_VALUE: asm_1_nif_fu:env <- $r14
	##DEBUG_VALUE: asm_1_nif_fu:argv <- $rbx
	.loc	3 219 24 is_stmt 1      ## native/lib.c:219:24
	movsd	-24(%rbp), %xmm0        ## xmm0 = mem[0],zero
	unpcklps	LCPI12_0(%rip), %xmm0 ## xmm0 = xmm0[0],mem[0],xmm0[1],mem[1]
	subpd	LCPI12_1(%rip), %xmm0
	haddpd	%xmm0, %xmm0
	.loc	3 219 21 is_stmt 0      ## native/lib.c:219:21
	addsd	-32(%rbp), %xmm0
Ltmp217:
	##DEBUG_VALUE: asm_1_nif_fu:result <- $xmm0
	.loc	3 220 32 is_stmt 1      ## native/lib.c:220:32
	movq	_ok_atom(%rip), %rbx
Ltmp218:
	.loc	3 220 41 is_stmt 0      ## native/lib.c:220:41
	movq	%r14, %rdi
	callq	_enif_make_double
Ltmp219:
	movq	%rax, %rcx
Ltmp220:
	##DEBUG_VALUE: enif_make_tuple2:e2 <- $rcx
	##DEBUG_VALUE: enif_make_tuple2:e1 <- $rbx
	.loc	7 426 12 is_stmt 1      ## /Users/zacky/.erlenv/releases/21.1/lib/erlang/erts-10.1/include/erl_nif_api_funcs.h:426:12
	movl	$2, %esi
	xorl	%eax, %eax
	movq	%r14, %rdi
	movq	%rbx, %rdx
	callq	_enif_make_tuple
Ltmp221:
LBB12_4:
	##DEBUG_VALUE: asm_1_nif_fu:a <- [DW_OP_constu 32, DW_OP_minus, DW_OP_deref] $rbp
	##DEBUG_VALUE: asm_1_nif_fu:env <- $r14
	.loc	3 223 1                 ## native/lib.c:223:1
	addq	$16, %rsp
	popq	%rbx
	popq	%r14
Ltmp222:
	popq	%rbp
	retq
LBB12_3:
	##DEBUG_VALUE: asm_1_nif_fu:a <- [DW_OP_constu 32, DW_OP_minus, DW_OP_deref] $rbp
Ltmp223:
	##DEBUG_VALUE: asm_1_nif_fu:env <- $r14
	##DEBUG_VALUE: asm_1_nif_fu:argv <- $rbx
	.loc	3 222 10                ## native/lib.c:222:10
	movq	_arithmetic_error(%rip), %rax
	jmp	LBB12_4
Ltmp224:
Lfunc_end12:
	.cfi_endproc
                                        ## -- End function
	.p2align	4, 0x90         ## -- Begin function asm_1_nif_ff
_asm_1_nif_ff:                          ## @asm_1_nif_ff
Lfunc_begin13:
	.loc	3 226 0                 ## native/lib.c:226:0
	.cfi_startproc
## %bb.0:
	pushq	%rbp
	.cfi_def_cfa_offset 16
	.cfi_offset %rbp, -16
	movq	%rsp, %rbp
	.cfi_def_cfa_register %rbp
	pushq	%r14
	pushq	%rbx
	subq	$16, %rsp
	.cfi_offset %rbx, -32
	.cfi_offset %r14, -24
	##DEBUG_VALUE: asm_1_nif_ff:env <- $rdi
	##DEBUG_VALUE: asm_1_nif_ff:argc <- $esi
	##DEBUG_VALUE: asm_1_nif_ff:argv <- $rdx
Ltmp225:
	##DEBUG_VALUE: enif_make_tuple2:env <- $rdi
	movq	%rdx, %rbx
	movq	%rdi, %r14
Ltmp226:
	##DEBUG_VALUE: enif_make_tuple2:env <- $r14
	##DEBUG_VALUE: asm_1_nif_ff:argv <- $rbx
	##DEBUG_VALUE: asm_1_nif_ff:env <- $r14
	.loc	3 228 45 prologue_end   ## native/lib.c:228:45
	movq	(%rdx), %rsi
Ltmp227:
	.loc	3 0 45 is_stmt 0        ## native/lib.c:0:45
	leaq	-32(%rbp), %rdx
Ltmp228:
	##DEBUG_VALUE: asm_1_nif_ff:a <- [DW_OP_constu 32, DW_OP_minus, DW_OP_deref] $rbp
	.loc	3 228 24                ## native/lib.c:228:24
	callq	_enif_get_double
	.loc	3 228 58                ## native/lib.c:228:58
	testl	%eax, %eax
Ltmp229:
	.loc	3 228 6                 ## native/lib.c:228:6
	je	LBB13_3
Ltmp230:
## %bb.1:
	##DEBUG_VALUE: asm_1_nif_ff:a <- [DW_OP_constu 32, DW_OP_minus, DW_OP_deref] $rbp
	##DEBUG_VALUE: asm_1_nif_ff:env <- $r14
	##DEBUG_VALUE: asm_1_nif_ff:argv <- $rbx
	.loc	3 231 45 is_stmt 1      ## native/lib.c:231:45
	movq	8(%rbx), %rsi
	leaq	-24(%rbp), %rdx
Ltmp231:
	##DEBUG_VALUE: asm_1_nif_ff:b <- [DW_OP_constu 24, DW_OP_minus, DW_OP_deref] $rbp
	.loc	3 231 24 is_stmt 0      ## native/lib.c:231:24
	movq	%r14, %rdi
	callq	_enif_get_double
	.loc	3 231 58                ## native/lib.c:231:58
	testl	%eax, %eax
Ltmp232:
	.loc	3 231 6                 ## native/lib.c:231:6
	je	LBB13_3
Ltmp233:
## %bb.2:
	##DEBUG_VALUE: asm_1_nif_ff:b <- [DW_OP_constu 24, DW_OP_minus, DW_OP_deref] $rbp
	##DEBUG_VALUE: asm_1_nif_ff:a <- [DW_OP_constu 32, DW_OP_minus, DW_OP_deref] $rbp
	##DEBUG_VALUE: asm_1_nif_ff:env <- $r14
	##DEBUG_VALUE: asm_1_nif_ff:argv <- $rbx
	.loc	3 234 19 is_stmt 1      ## native/lib.c:234:19
	movsd	-32(%rbp), %xmm0        ## xmm0 = mem[0],zero
Ltmp234:
	##DEBUG_VALUE: asm_1_nif_ff:a <- $xmm0
	.loc	3 234 21 is_stmt 0      ## native/lib.c:234:21
	addsd	-24(%rbp), %xmm0
Ltmp235:
	##DEBUG_VALUE: asm_1_nif_ff:result <- $xmm0
	.loc	3 235 32 is_stmt 1      ## native/lib.c:235:32
	movq	_ok_atom(%rip), %rbx
Ltmp236:
	.loc	3 235 41 is_stmt 0      ## native/lib.c:235:41
	movq	%r14, %rdi
	callq	_enif_make_double
Ltmp237:
	movq	%rax, %rcx
Ltmp238:
	##DEBUG_VALUE: enif_make_tuple2:e2 <- $rcx
	##DEBUG_VALUE: enif_make_tuple2:e1 <- $rbx
	.loc	7 426 12 is_stmt 1      ## /Users/zacky/.erlenv/releases/21.1/lib/erlang/erts-10.1/include/erl_nif_api_funcs.h:426:12
	movl	$2, %esi
	xorl	%eax, %eax
	movq	%r14, %rdi
	movq	%rbx, %rdx
	callq	_enif_make_tuple
Ltmp239:
LBB13_4:
	##DEBUG_VALUE: asm_1_nif_ff:env <- $r14
	.loc	3 238 1                 ## native/lib.c:238:1
	addq	$16, %rsp
	popq	%rbx
	popq	%r14
Ltmp240:
	popq	%rbp
	retq
LBB13_3:
Ltmp241:
	##DEBUG_VALUE: asm_1_nif_ff:a <- [DW_OP_constu 32, DW_OP_minus, DW_OP_deref] $rbp
	##DEBUG_VALUE: asm_1_nif_ff:env <- $r14
	##DEBUG_VALUE: asm_1_nif_ff:argv <- $rbx
	.loc	3 237 10                ## native/lib.c:237:10
	movq	_arithmetic_error(%rip), %rax
	jmp	LBB13_4
Ltmp242:
Lfunc_end13:
	.cfi_endproc
                                        ## -- End function
	.globl	_nif_init               ## -- Begin function nif_init
	.p2align	4, 0x90
_nif_init:                              ## @nif_init
Lfunc_begin14:
	.loc	3 254 0                 ## native/lib.c:254:0
	.cfi_startproc
## %bb.0:
	pushq	%rbp
	.cfi_def_cfa_offset 16
	.cfi_offset %rbp, -16
	movq	%rsp, %rbp
	.cfi_def_cfa_register %rbp
Ltmp243:
	.loc	3 254 1 prologue_end    ## native/lib.c:254:1
	leaq	_nif_init.entry(%rip), %rax
	popq	%rbp
	retq
Ltmp244:
Lfunc_end14:
	.cfi_endproc
                                        ## -- End function
	.section	__TEXT,__cstring,cstring_literals
L_.str:                                 ## @.str
	.asciz	"ArithmeticError"

.zerofill __DATA,__bss,_arithmetic_error,8,3 ## @arithmetic_error
L_.str.1:                               ## @.str.1
	.asciz	"ok"

.zerofill __DATA,__bss,_ok_atom,8,3     ## @ok_atom
L_.str.2:                               ## @.str.2
	.asciz	"error"

.zerofill __DATA,__bss,_error_atom,8,3  ## @error_atom
L_.str.3:                               ## @.str.3
	.asciz	"arithmetic_error"

.zerofill __DATA,__bss,_arithmetic_error_atom,8,3 ## @arithmetic_error_atom
L_.str.4:                               ## @.str.4
	.asciz	"asm_1_nif_ii"

L_.str.5:                               ## @.str.5
	.asciz	"asm_1_nif_uu"

L_.str.6:                               ## @.str.6
	.asciz	"asm_1_nif_bb"

L_.str.7:                               ## @.str.7
	.asciz	"asm_1_nif_if"

L_.str.8:                               ## @.str.8
	.asciz	"asm_1_nif_uf"

L_.str.9:                               ## @.str.9
	.asciz	"asm_1_nif_fi"

L_.str.10:                              ## @.str.10
	.asciz	"asm_1_nif_fu"

L_.str.11:                              ## @.str.11
	.asciz	"asm_1_nif_ff"

	.section	__DATA,__data
	.p2align	4               ## @nif_funcs
_nif_funcs:
	.quad	L_.str.4
	.long	2                       ## 0x2
	.space	4
	.quad	_asm_1_nif_ii
	.long	0                       ## 0x0
	.space	4
	.quad	L_.str.5
	.long	2                       ## 0x2
	.space	4
	.quad	_asm_1_nif_uu
	.long	0                       ## 0x0
	.space	4
	.quad	L_.str.6
	.long	2                       ## 0x2
	.space	4
	.quad	_asm_1_nif_bb
	.long	0                       ## 0x0
	.space	4
	.quad	L_.str.7
	.long	2                       ## 0x2
	.space	4
	.quad	_asm_1_nif_if
	.long	0                       ## 0x0
	.space	4
	.quad	L_.str.8
	.long	2                       ## 0x2
	.space	4
	.quad	_asm_1_nif_uf
	.long	0                       ## 0x0
	.space	4
	.quad	L_.str.9
	.long	2                       ## 0x2
	.space	4
	.quad	_asm_1_nif_fi
	.long	0                       ## 0x0
	.space	4
	.quad	L_.str.10
	.long	2                       ## 0x2
	.space	4
	.quad	_asm_1_nif_fu
	.long	0                       ## 0x0
	.space	4
	.quad	L_.str.11
	.long	2                       ## 0x2
	.space	4
	.quad	_asm_1_nif_ff
	.long	0                       ## 0x0
	.space	4

	.p2align	3               ## @nif_init.entry
_nif_init.entry:
	.long	2                       ## 0x2
	.long	14                      ## 0xe
	.quad	L_.str.12
	.long	8                       ## 0x8
	.space	4
	.quad	_nif_funcs
	.quad	_load
	.quad	_reload
	.quad	_upgrade
	.quad	_unload
	.quad	L_.str.13
	.long	1                       ## 0x1
	.space	4
	.quad	24                      ## 0x18
	.quad	L_.str.14

	.section	__TEXT,__cstring,cstring_literals
L_.str.12:                              ## @.str.12
	.asciz	"Elixir.NifLlvm"

L_.str.13:                              ## @.str.13
	.asciz	"beam.vanilla"

L_.str.14:                              ## @.str.14
	.asciz	"erts-10.0 (OTP-21)"
